; Function Attrs: mustprogress nofree norecurse nosync nounwind willreturn memory(argmem: write) uwtable
define hidden void @_ZN12MoveResolver19set_insert_positionEP8LIR_Listi(ptr nocapture noundef nonnull writeonly align 8 dereferenceable(380) %0, ptr noundef %1, i32 noundef %2) local_unnamed_addr #9 align 2 {
  %4 = getelementptr inbounds i8, ptr %0, i64 24
  store ptr %1, ptr %4, align 8
  %5 = getelementptr inbounds i8, ptr %0, i64 32
  store i32 0, ptr %5, align 8
  %6 = getelementptr inbounds i8, ptr %0, i64 56
  store i32 0, ptr %6, align 8
  %7 = getelementptr inbounds i8, ptr %0, i64 8
  store ptr %1, ptr %7, align 8
  %8 = getelementptr inbounds i8, ptr %0, i64 16
  store i32 %2, ptr %8, align 8
  ret void
}